target datalayout = "e-m:e-p270:32:32-p271:32:32-p272:64:64-i64:64-i128:128-f80:128-n8:16:32:64-S128"
target triple = "x86_64-pc-linux-gnu"

%struct.CClosure = type { ptr, i8, i8, i8, ptr, ptr, [1 x %struct.TValue] }
%struct.TValue = type { %union.Value, i8 }
%union.Value = type { ptr }

; Function Attrs: nounwind uwtable
define hidden ptr @luaF_newCclosure(ptr noundef %0, i32 noundef %1) #0 {
  %3 = alloca ptr, align 8
  %4 = alloca i32, align 4
  %5 = alloca ptr, align 8
  %6 = alloca ptr, align 8
  store ptr %0, ptr %3, align 8, !tbaa !4
  store i32 %1, ptr %4, align 4, !tbaa !9
  call void @llvm.lifetime.start.p0(i64 8, ptr %5) #5
  %7 = load ptr, ptr %3, align 8, !tbaa !4
  %8 = load i32, ptr %4, align 4, !tbaa !9
  %9 = zext i32 %8 to i64
  %10 = mul i64 16, %9
  %11 = add i64 32, %10
  %12 = call ptr @luaC_newobj(ptr noundef %7, i8 noundef zeroext 38, i64 noundef %11)
  store ptr %12, ptr %5, align 8, !tbaa !11
  call void @llvm.lifetime.start.p0(i64 8, ptr %6) #5
  %13 = load ptr, ptr %5, align 8, !tbaa !11
  store ptr %13, ptr %6, align 8, !tbaa !13
  %14 = load i32, ptr %4, align 4, !tbaa !9
  %15 = trunc i32 %14 to i8
  %16 = load ptr, ptr %6, align 8, !tbaa !13
  %17 = getelementptr inbounds nuw %struct.CClosure, ptr %16, i32 0, i32 3
  store i8 %15, ptr %17, align 2, !tbaa !15
  %18 = load ptr, ptr %6, align 8, !tbaa !13
  call void @llvm.lifetime.end.p0(i64 8, ptr %6) #5
  call void @llvm.lifetime.end.p0(i64 8, ptr %5) #5
  ret ptr %18
}