; Function Attrs: nounwind uwtable
define hidden ptr @luaF_newCclosure(ptr noundef %0, i32 noundef %1) local_unnamed_addr #0 {
  %3 = zext i32 %1 to i64
  %4 = shl nuw nsw i64 %3, 4
  %5 = add nuw nsw i64 %4, 32
  %6 = tail call ptr @luaC_newobj(ptr noundef %0, i8 noundef zeroext 38, i64 noundef %5) #7
  %7 = trunc i32 %1 to i8
  %8 = getelementptr inbounds nuw i8, ptr %6, i64 10
  store i8 %7, ptr %8, align 2, !tbaa !4
  ret ptr %6
}